target datalayout = "e-m:e-p270:32:32-p271:32:32-p272:64:64-i64:64-i128:128-f80:128-n8:16:32:64-S128"
target triple = "x86_64-pc-linux-gnu"

%class.anon = type { ptr, ptr, ptr }
%"class.pbrt::GUI" = type { float, i8, %"class.std::set", float, %"class.pbrt::Transform", %"class.pbrt::Vector2", i8, i32, i8, float, float, double, double, ptr, ptr }
%"class.std::set" = type { %"class.std::_Rb_tree" }
%"class.std::_Rb_tree" = type { %"struct.std::_Rb_tree<char, char, std::_Identity<char>, std::less<char>>::_Rb_tree_impl" }
%"struct.std::_Rb_tree<char, char, std::_Identity<char>, std::less<char>>::_Rb_tree_impl" = type { [8 x i8], %"struct.std::_Rb_tree_header" }
%"struct.std::_Rb_tree_header" = type { %"struct.std::_Rb_tree_node_base", i64 }
%"struct.std::_Rb_tree_node_base" = type { i32, ptr, ptr, ptr }
%"class.pbrt::Transform" = type { %"class.pbrt::SquareMatrix.0", %"class.pbrt::SquareMatrix.0" }
%"class.pbrt::SquareMatrix.0" = type { [4 x [4 x float]] }
%"class.pbrt::Vector2" = type { %"class.pbrt::Tuple2" }
%"class.pbrt::Tuple2" = type { i32, i32 }

; Function Attrs: mustprogress uwtable
define dso_local void @_ZN4pbrt3GUI16keyboardCallbackEP10GLFWwindowiiii(ptr noundef nonnull align 8 dereferenceable(248) %0, ptr noundef %1, i32 noundef %2, i32 noundef %3, i32 noundef %4, i32 noundef %5) #1 align 2 {
  %7 = alloca ptr, align 8
  %8 = alloca ptr, align 8
  %9 = alloca i32, align 4
  %10 = alloca i32, align 4
  %11 = alloca i32, align 4
  %12 = alloca i32, align 4
  %13 = alloca %class.anon, align 8
  store ptr %0, ptr %7, align 8, !tbaa !15
  store ptr %1, ptr %8, align 8, !tbaa !17
  store i32 %2, ptr %9, align 4, !tbaa !13
  store i32 %3, ptr %10, align 4, !tbaa !13
  store i32 %4, ptr %11, align 4, !tbaa !13
  store i32 %5, ptr %12, align 4, !tbaa !13
  %14 = load ptr, ptr %7, align 8
  %15 = load i32, ptr %9, align 4, !tbaa !13
  %16 = icmp eq i32 %15, 256
  br i1 %16, label %17, label %22

17:                                               ; preds = %6
  %18 = load i32, ptr %11, align 4, !tbaa !13
  %19 = icmp eq i32 %18, 1
  br i1 %19, label %20, label %22

20:                                               ; preds = %17
  %21 = load ptr, ptr %8, align 8, !tbaa !17
  call void @glfwSetWindowShouldClose(ptr noundef %21, i32 noundef 1)
  br label %22

22:                                               ; preds = %20, %17, %6
  call void @llvm.lifetime.start.p0(i64 24, ptr %13) #22
  %23 = getelementptr inbounds nuw %class.anon, ptr %13, i32 0, i32 0
  store ptr %9, ptr %23, align 8, !tbaa !19
  %24 = getelementptr inbounds nuw %class.anon, ptr %13, i32 0, i32 1
  store ptr %11, ptr %24, align 8, !tbaa !19
  %25 = getelementptr inbounds nuw %class.anon, ptr %13, i32 0, i32 2
  store ptr %14, ptr %25, align 8, !tbaa !21
  call void @"_ZZN4pbrt3GUI16keyboardCallbackEP10GLFWwindowiiiiENK3$_0clEic"(ptr noundef nonnull align 8 dereferenceable(24) %13, i32 noundef 65, i8 noundef signext 97)
  call void @"_ZZN4pbrt3GUI16keyboardCallbackEP10GLFWwindowiiiiENK3$_0clEic"(ptr noundef nonnull align 8 dereferenceable(24) %13, i32 noundef 68, i8 noundef signext 100)
  call void @"_ZZN4pbrt3GUI16keyboardCallbackEP10GLFWwindowiiiiENK3$_0clEic"(ptr noundef nonnull align 8 dereferenceable(24) %13, i32 noundef 83, i8 noundef signext 115)
  call void @"_ZZN4pbrt3GUI16keyboardCallbackEP10GLFWwindowiiiiENK3$_0clEic"(ptr noundef nonnull align 8 dereferenceable(24) %13, i32 noundef 87, i8 noundef signext 119)
  call void @"_ZZN4pbrt3GUI16keyboardCallbackEP10GLFWwindowiiiiENK3$_0clEic"(ptr noundef nonnull align 8 dereferenceable(24) %13, i32 noundef 81, i8 noundef signext 113)
  call void @"_ZZN4pbrt3GUI16keyboardCallbackEP10GLFWwindowiiiiENK3$_0clEic"(ptr noundef nonnull align 8 dereferenceable(24) %13, i32 noundef 69, i8 noundef signext 101)
  %26 = load i32, ptr %12, align 4, !tbaa !13
  %27 = and i32 %26, 1
  %28 = icmp ne i32 %27, 0
  %29 = select i1 %28, i8 66, i8 98
  call void @"_ZZN4pbrt3GUI16keyboardCallbackEP10GLFWwindowiiiiENK3$_0clEic"(ptr noundef nonnull align 8 dereferenceable(24) %13, i32 noundef 66, i8 noundef signext %29)
  call void @"_ZZN4pbrt3GUI16keyboardCallbackEP10GLFWwindowiiiiENK3$_0clEic"(ptr noundef nonnull align 8 dereferenceable(24) %13, i32 noundef 67, i8 noundef signext 99)
  call void @"_ZZN4pbrt3GUI16keyboardCallbackEP10GLFWwindowiiiiENK3$_0clEic"(ptr noundef nonnull align 8 dereferenceable(24) %13, i32 noundef 61, i8 noundef signext 61)
  call void @"_ZZN4pbrt3GUI16keyboardCallbackEP10GLFWwindowiiiiENK3$_0clEic"(ptr noundef nonnull align 8 dereferenceable(24) %13, i32 noundef 45, i8 noundef signext 45)
  call void @"_ZZN4pbrt3GUI16keyboardCallbackEP10GLFWwindowiiiiENK3$_0clEic"(ptr noundef nonnull align 8 dereferenceable(24) %13, i32 noundef 263, i8 noundef signext 76)
  call void @"_ZZN4pbrt3GUI16keyboardCallbackEP10GLFWwindowiiiiENK3$_0clEic"(ptr noundef nonnull align 8 dereferenceable(24) %13, i32 noundef 262, i8 noundef signext 82)
  call void @"_ZZN4pbrt3GUI16keyboardCallbackEP10GLFWwindowiiiiENK3$_0clEic"(ptr noundef nonnull align 8 dereferenceable(24) %13, i32 noundef 265, i8 noundef signext 85)
  call void @"_ZZN4pbrt3GUI16keyboardCallbackEP10GLFWwindowiiiiENK3$_0clEic"(ptr noundef nonnull align 8 dereferenceable(24) %13, i32 noundef 264, i8 noundef signext 68)
  %30 = load i32, ptr %9, align 4, !tbaa !13
  %31 = icmp eq i32 %30, 82
  br i1 %31, label %32, label %46

32:                                               ; preds = %22
  %33 = load i32, ptr %11, align 4, !tbaa !13
  %34 = icmp eq i32 %33, 1
  br i1 %34, label %35, label %46

35:                                               ; preds = %32
  %36 = load ptr, ptr %8, align 8, !tbaa !17
  %37 = call i32 @glfwGetKey(ptr noundef %36, i32 noundef 341)
  %38 = icmp eq i32 %37, 1
  br i1 %38, label %39, label %46

39:                                               ; preds = %35
  %40 = getelementptr inbounds nuw %"class.pbrt::GUI", ptr %14, i32 0, i32 6
  %41 = load i8, ptr %40, align 4, !tbaa !23, !range !41, !noundef !42
  %42 = trunc i8 %41 to i1
  %43 = xor i1 %42, true
  %44 = getelementptr inbounds nuw %"class.pbrt::GUI", ptr %14, i32 0, i32 6
  %45 = zext i1 %43 to i8
  store i8 %45, ptr %44, align 4, !tbaa !23
  br label %47

46:                                               ; preds = %35, %32, %22
  call void @"_ZZN4pbrt3GUI16keyboardCallbackEP10GLFWwindowiiiiENK3$_0clEic"(ptr noundef nonnull align 8 dereferenceable(24) %13, i32 noundef 82, i8 noundef signext 114)
  br label %47

47:                                               ; preds = %46, %39
  call void @llvm.lifetime.end.p0(i64 24, ptr %13) #22
  ret void
}