; Function Attrs: mustprogress uwtable
define dso_local void @_ZN4pbrt3GUI16keyboardCallbackEP10GLFWwindowiiii(ptr noundef nonnull align 8 dereferenceable(248) %0, ptr noundef %1, i32 noundef %2, i32 %3, i32 noundef %4, i32 noundef %5) local_unnamed_addr #1 align 2 {
  %7 = alloca i32, align 4
  %8 = alloca i32, align 4
  %9 = alloca %class.anon, align 8
  store i32 %2, ptr %7, align 4, !tbaa !4
  store i32 %4, ptr %8, align 4, !tbaa !4
  %10 = icmp eq i32 %2, 256
  %11 = icmp eq i32 %4, 1
  %or.cond = and i1 %10, %11
  br i1 %or.cond, label %12, label %13

12:                                               ; preds = %6
  tail call void @glfwSetWindowShouldClose(ptr noundef %1, i32 noundef 1)
  br label %13

13:                                               ; preds = %12, %6
  call void @llvm.lifetime.start.p0(i64 24, ptr nonnull %9) #28
  store ptr %7, ptr %9, align 8, !tbaa !8
  %14 = getelementptr inbounds nuw i8, ptr %9, i64 8
  store ptr %8, ptr %14, align 8, !tbaa !8
  %15 = getelementptr inbounds nuw i8, ptr %9, i64 16
  store ptr %0, ptr %15, align 8, !tbaa !11
  call fastcc void @"_ZZN4pbrt3GUI16keyboardCallbackEP10GLFWwindowiiiiENK3$_0clEic"(ptr noundef nonnull align 8 dereferenceable(24) %9, i32 noundef 65, i8 noundef signext 97)
  call fastcc void @"_ZZN4pbrt3GUI16keyboardCallbackEP10GLFWwindowiiiiENK3$_0clEic"(ptr noundef nonnull align 8 dereferenceable(24) %9, i32 noundef 68, i8 noundef signext 100)
  call fastcc void @"_ZZN4pbrt3GUI16keyboardCallbackEP10GLFWwindowiiiiENK3$_0clEic"(ptr noundef nonnull align 8 dereferenceable(24) %9, i32 noundef 83, i8 noundef signext 115)
  call fastcc void @"_ZZN4pbrt3GUI16keyboardCallbackEP10GLFWwindowiiiiENK3$_0clEic"(ptr noundef nonnull align 8 dereferenceable(24) %9, i32 noundef 87, i8 noundef signext 119)
  call fastcc void @"_ZZN4pbrt3GUI16keyboardCallbackEP10GLFWwindowiiiiENK3$_0clEic"(ptr noundef nonnull align 8 dereferenceable(24) %9, i32 noundef 81, i8 noundef signext 113)
  call fastcc void @"_ZZN4pbrt3GUI16keyboardCallbackEP10GLFWwindowiiiiENK3$_0clEic"(ptr noundef nonnull align 8 dereferenceable(24) %9, i32 noundef 69, i8 noundef signext 101)
  %16 = and i32 %5, 1
  %.not = icmp eq i32 %16, 0
  %17 = select i1 %.not, i8 98, i8 66
  call fastcc void @"_ZZN4pbrt3GUI16keyboardCallbackEP10GLFWwindowiiiiENK3$_0clEic"(ptr noundef nonnull align 8 dereferenceable(24) %9, i32 noundef 66, i8 noundef signext %17)
  call fastcc void @"_ZZN4pbrt3GUI16keyboardCallbackEP10GLFWwindowiiiiENK3$_0clEic"(ptr noundef nonnull align 8 dereferenceable(24) %9, i32 noundef 67, i8 noundef signext 99)
  call fastcc void @"_ZZN4pbrt3GUI16keyboardCallbackEP10GLFWwindowiiiiENK3$_0clEic"(ptr noundef nonnull align 8 dereferenceable(24) %9, i32 noundef 61, i8 noundef signext 61)
  call fastcc void @"_ZZN4pbrt3GUI16keyboardCallbackEP10GLFWwindowiiiiENK3$_0clEic"(ptr noundef nonnull align 8 dereferenceable(24) %9, i32 noundef 45, i8 noundef signext 45)
  call fastcc void @"_ZZN4pbrt3GUI16keyboardCallbackEP10GLFWwindowiiiiENK3$_0clEic"(ptr noundef nonnull align 8 dereferenceable(24) %9, i32 noundef 263, i8 noundef signext 76)
  call fastcc void @"_ZZN4pbrt3GUI16keyboardCallbackEP10GLFWwindowiiiiENK3$_0clEic"(ptr noundef nonnull align 8 dereferenceable(24) %9, i32 noundef 262, i8 noundef signext 82)
  call fastcc void @"_ZZN4pbrt3GUI16keyboardCallbackEP10GLFWwindowiiiiENK3$_0clEic"(ptr noundef nonnull align 8 dereferenceable(24) %9, i32 noundef 265, i8 noundef signext 85)
  call fastcc void @"_ZZN4pbrt3GUI16keyboardCallbackEP10GLFWwindowiiiiENK3$_0clEic"(ptr noundef nonnull align 8 dereferenceable(24) %9, i32 noundef 264, i8 noundef signext 68)
  %18 = load i32, ptr %7, align 4, !tbaa !4
  %19 = icmp eq i32 %18, 82
  %20 = load i32, ptr %8, align 4
  %21 = icmp eq i32 %20, 1
  %or.cond3 = select i1 %19, i1 %21, i1 false
  br i1 %or.cond3, label %22, label %29

22:                                               ; preds = %13
  %23 = call i32 @glfwGetKey(ptr noundef %1, i32 noundef 341)
  %24 = icmp eq i32 %23, 1
  br i1 %24, label %25, label %29

25:                                               ; preds = %22
  %26 = getelementptr inbounds nuw i8, ptr %0, i64 196
  %27 = load i8, ptr %26, align 4, !tbaa !14, !range !35, !noundef !36
  %28 = xor i8 %27, 1
  store i8 %28, ptr %26, align 4, !tbaa !14
  br label %30

29:                                               ; preds = %22, %13
  call fastcc void @"_ZZN4pbrt3GUI16keyboardCallbackEP10GLFWwindowiiiiENK3$_0clEic"(ptr noundef nonnull align 8 dereferenceable(24) %9, i32 noundef 82, i8 noundef signext 114)
  br label %30

30:                                               ; preds = %29, %25
  call void @llvm.lifetime.end.p0(i64 24, ptr nonnull %9) #28
  ret void
}